; Function Attrs: nounwind uwtable
define range(i32 -1, 1) i32 @H5HF__huge_op(ptr noundef %0, ptr noundef %1, ptr noundef readonly captures(none) %2, ptr noundef %3) local_unnamed_addr #1 {
  %5 = load i8, ptr @H5HF_init_g, align 1, !tbaa !3, !range !7, !noundef !8
  %6 = trunc nuw i8 %5 to i1
  %7 = load i8, ptr @H5_libterm_g, align 1, !range !7
  %8 = trunc nuw i8 %7 to i1
  %9 = xor i1 %8, true
  %10 = select i1 %6, i1 true, i1 %9
  br i1 %10, label %11, label %18, !prof !9

11:                                               ; preds = %4
  %12 = tail call fastcc i32 @H5HF__huge_op_real(ptr noundef %0, ptr noundef %1, i1 noundef zeroext false, ptr noundef %2, ptr noundef %3)
  %13 = icmp slt i32 %12, 0
  br i1 %13, label %14, label %18

14:                                               ; preds = %11
  %15 = load i64, ptr @H5E_HEAP_g, align 8, !tbaa !52
  %16 = load i64, ptr @H5E_CANTOPERATE_g, align 8, !tbaa !52
  %17 = tail call i32 (ptr, ptr, i32, i64, i64, ptr, ...) @H5E_printf_stack(ptr noundef nonnull @.str, ptr noundef nonnull @__func__.H5HF__huge_op, i32 noundef 918, i64 noundef %15, i64 noundef %16, ptr noundef nonnull @.str.13) #6
  br label %18

18:                                               ; preds = %14, %11, %4
  %.0 = phi i32 [ -1, %14 ], [ 0, %11 ], [ 0, %4 ]
  ret i32 %.0
}